; Function Attrs: mustprogress uwtable
define dso_local void @_ZN14cmConfigureLog10WriteValueESt17basic_string_viewIcSt11char_traitsIcEEDn(ptr noundef nonnull align 8 dereferenceable(584) %0, i64 %1, ptr %2, ptr readnone captures(none) %3) local_unnamed_addr #5 align 2 {
  %5 = getelementptr inbounds nuw i8, ptr %0, i64 568
  %6 = load i32, ptr %5, align 8, !tbaa !20
  %.not.i = icmp eq i32 %6, 0
  br i1 %.not.i, label %_ZN14cmConfigureLog9BeginLineEv.exit, label %.lr.ph.i

.lr.ph.i:                                         ; preds = %4
  %7 = getelementptr inbounds nuw i8, ptr %0, i64 56
  br label %8

8:                                                ; preds = %8, %.lr.ph.i
  %.02.i = phi i32 [ 0, %.lr.ph.i ], [ %10, %8 ]
  %9 = tail call noundef nonnull align 8 dereferenceable(8) ptr @_ZSt16__ostream_insertIcSt11char_traitsIcEERSt13basic_ostreamIT_T0_ES6_PKS3_l(ptr noundef nonnull align 8 dereferenceable(8) %7, ptr noundef nonnull @.str.9, i64 noundef 2)
  %10 = add nuw i32 %.02.i, 1
  %11 = load i32, ptr %5, align 8, !tbaa !20
  %12 = icmp ult i32 %10, %11
  br i1 %12, label %8, label %_ZN14cmConfigureLog9BeginLineEv.exit, !llvm.loop !94

_ZN14cmConfigureLog9BeginLineEv.exit:             ; preds = %8, %4
  %13 = getelementptr inbounds nuw i8, ptr %0, i64 56
  %14 = tail call noundef nonnull align 8 dereferenceable(8) ptr @_ZSt16__ostream_insertIcSt11char_traitsIcEERSt13basic_ostreamIT_T0_ES6_PKS3_l(ptr noundef nonnull align 8 dereferenceable(8) %13, ptr noundef %2, i64 noundef %1)
  %15 = tail call noundef nonnull align 8 dereferenceable(8) ptr @_ZSt16__ostream_insertIcSt11char_traitsIcEERSt13basic_ostreamIT_T0_ES6_PKS3_l(ptr noundef nonnull align 8 dereferenceable(8) %14, ptr noundef nonnull @.str.11, i64 noundef 6)
  %16 = load ptr, ptr %13, align 8, !tbaa !52
  %17 = getelementptr i8, ptr %16, i64 -24
  %18 = load i64, ptr %17, align 8
  %19 = getelementptr inbounds i8, ptr %13, i64 %18
  %20 = getelementptr inbounds nuw i8, ptr %19, i64 240
  %21 = load ptr, ptr %20, align 8, !tbaa !95
  %.not.i.i.i.i = icmp eq ptr %21, null
  br i1 %.not.i.i.i.i, label %22, label %_ZSt13__check_facetISt5ctypeIcEERKT_PS3_.exit.i.i.i

22:                                               ; preds = %_ZN14cmConfigureLog9BeginLineEv.exit
  tail call void @_ZSt16__throw_bad_castv() #24
  unreachable

_ZSt13__check_facetISt5ctypeIcEERKT_PS3_.exit.i.i.i: ; preds = %_ZN14cmConfigureLog9BeginLineEv.exit
  %23 = getelementptr inbounds nuw i8, ptr %21, i64 56
  %24 = load i8, ptr %23, align 8, !tbaa !108
  %.not.i1.i.i.i = icmp eq i8 %24, 0
  br i1 %.not.i1.i.i.i, label %28, label %25

25:                                               ; preds = %_ZSt13__check_facetISt5ctypeIcEERKT_PS3_.exit.i.i.i
  %26 = getelementptr inbounds nuw i8, ptr %21, i64 67
  %27 = load i8, ptr %26, align 1, !tbaa !14
  br label %_ZN14cmConfigureLog7EndLineEv.exit

28:                                               ; preds = %_ZSt13__check_facetISt5ctypeIcEERKT_PS3_.exit.i.i.i
  tail call void @_ZNKSt5ctypeIcE13_M_widen_initEv(ptr noundef nonnull align 8 dereferenceable(570) %21)
  %29 = load ptr, ptr %21, align 8, !tbaa !52
  %30 = getelementptr inbounds nuw i8, ptr %29, i64 48
  %31 = load ptr, ptr %30, align 8
  %32 = tail call noundef signext i8 %31(ptr noundef nonnull align 8 dereferenceable(570) %21, i8 noundef signext 10)
  br label %_ZN14cmConfigureLog7EndLineEv.exit

_ZN14cmConfigureLog7EndLineEv.exit:               ; preds = %25, %28
  %.0.i.i.i.i = phi i8 [ %27, %25 ], [ %32, %28 ]
  %33 = tail call noundef nonnull align 8 dereferenceable(8) ptr @_ZNSo3putEc(ptr noundef nonnull align 8 dereferenceable(8) %13, i8 noundef signext %.0.i.i.i.i)
  %34 = tail call noundef nonnull align 8 dereferenceable(8) ptr @_ZNSo5flushEv(ptr noundef nonnull align 8 dereferenceable(8) %33)
  ret void
}